target datalayout = "e-m:e-p270:32:32-p271:32:32-p272:64:64-i64:64-i128:128-f80:128-n8:16:32:64-S128"
target triple = "x86_64-pc-linux-gnu"

@.str.176 = private unnamed_addr constant [14 x i8] c"/proc/meminfo\00", align 1
@.str.177 = private unnamed_addr constant [10 x i8] c"MemTotal:\00", align 1

; Function Attrs: mustprogress uwtable
define internal noundef i32 @_ZN5cmsys12_GLOBAL__N_116GetFieldFromFileIxEEiPKcS3_RT_(ptr noundef %0, ptr noundef %1, ptr noundef nonnull align 8 dereferenceable(8) %2) #4 {
  %4 = alloca i32, align 4
  %5 = alloca ptr, align 8
  %6 = alloca ptr, align 8
  %7 = alloca ptr, align 8
  %8 = alloca [2 x ptr], align 16
  %9 = alloca [1 x i64], align 8
  %10 = alloca i32, align 4
  %11 = alloca i32, align 4
  store ptr %0, ptr %5, align 8, !tbaa !69
  store ptr %1, ptr %6, align 8, !tbaa !69
  store ptr %2, ptr %7, align 8, !tbaa !94
  call void @llvm.lifetime.start.p0(i64 16, ptr %8) #3
  %12 = load ptr, ptr %6, align 8, !tbaa !69
  store ptr %12, ptr %8, align 8, !tbaa !69
  %13 = getelementptr inbounds ptr, ptr %8, i64 1
  store ptr null, ptr %13, align 8, !tbaa !69
  call void @llvm.lifetime.start.p0(i64 8, ptr %9) #3
  call void @llvm.memset.p0.i64(ptr align 8 %9, i8 0, i64 8, i1 false)
  call void @llvm.lifetime.start.p0(i64 4, ptr %10) #3
  %14 = load ptr, ptr %5, align 8, !tbaa !69
  %15 = getelementptr inbounds [2 x ptr], ptr %8, i64 0, i64 0
  %16 = getelementptr inbounds [1 x i64], ptr %9, i64 0, i64 0
  %17 = call noundef i32 @_ZN5cmsys12_GLOBAL__N_117GetFieldsFromFileIxEEiPKcPS3_PT_(ptr noundef %14, ptr noundef %15, ptr noundef %16)
  store i32 %17, ptr %10, align 4, !tbaa !70
  %18 = load i32, ptr %10, align 4, !tbaa !70
  %19 = icmp ne i32 %18, 0
  br i1 %19, label %20, label %22

20:                                               ; preds = %3
  %21 = load i32, ptr %10, align 4, !tbaa !70
  store i32 %21, ptr %4, align 4
  store i32 1, ptr %11, align 4
  br label %26

22:                                               ; preds = %3
  %23 = getelementptr inbounds [1 x i64], ptr %9, i64 0, i64 0
  %24 = load i64, ptr %23, align 8, !tbaa !92
  %25 = load ptr, ptr %7, align 8, !tbaa !94
  store i64 %24, ptr %25, align 8, !tbaa !92
  store i32 0, ptr %4, align 4
  store i32 1, ptr %11, align 4
  br label %26

26:                                               ; preds = %22, %20
  call void @llvm.lifetime.end.p0(i64 4, ptr %10) #3
  call void @llvm.lifetime.end.p0(i64 8, ptr %9) #3
  call void @llvm.lifetime.end.p0(i64 16, ptr %8) #3
  %27 = load i32, ptr %4, align 4
  ret i32 %27
}

; Function Attrs: mustprogress nounwind uwtable
define linkonce_odr dso_local noundef i64 @_ZN5cmsys3minIxEET_S1_S1_(i64 noundef %0, i64 noundef %1) #7 comdat {
  %3 = alloca i64, align 8
  %4 = alloca i64, align 8
  store i64 %0, ptr %3, align 8, !tbaa !92
  store i64 %1, ptr %4, align 8, !tbaa !92
  %5 = load i64, ptr %3, align 8, !tbaa !92
  %6 = load i64, ptr %4, align 8, !tbaa !92
  %7 = icmp slt i64 %5, %6
  br i1 %7, label %8, label %10

8:                                                ; preds = %2
  %9 = load i64, ptr %3, align 8, !tbaa !92
  br label %12

10:                                               ; preds = %2
  %11 = load i64, ptr %4, align 8, !tbaa !92
  br label %12

12:                                               ; preds = %10, %8
  %13 = phi i64 [ %9, %8 ], [ %11, %10 ]
  ret i64 %13
}

; Function Attrs: inlinehint mustprogress nounwind willreturn memory(read) uwtable
define available_externally i64 @atoll(ptr noundef nonnull %0) #13 {
  %2 = alloca ptr, align 8
  store ptr %0, ptr %2, align 8, !tbaa !69
  %3 = load ptr, ptr %2, align 8, !tbaa !69
  %4 = call i64 @strtoll(ptr noundef %3, ptr noundef null, i32 noundef 10) #3
  ret i64 %4
}

; Function Attrs: mustprogress uwtable
define dso_local noundef i64 @_ZN5cmsys31SystemInformationImplementation18GetHostMemoryTotalEv(ptr noundef nonnull align 8 dereferenceable(457) %0) #4 align 2 {
  %2 = alloca i64, align 8
  %3 = alloca ptr, align 8
  %4 = alloca i64, align 8
  %5 = alloca i32, align 4
  %6 = alloca i32, align 4
  store ptr %0, ptr %3, align 8, !tbaa !12
  call void @llvm.lifetime.start.p0(i64 8, ptr %4) #3
  store i64 0, ptr %4, align 8, !tbaa !92
  call void @llvm.lifetime.start.p0(i64 4, ptr %5) #3
  %7 = call noundef i32 @_ZN5cmsys12_GLOBAL__N_116GetFieldFromFileIxEEiPKcS3_RT_(ptr noundef @.str.176, ptr noundef @.str.177, ptr noundef nonnull align 8 dereferenceable(8) %4)
  store i32 %7, ptr %5, align 4, !tbaa !70
  %8 = load i32, ptr %5, align 4, !tbaa !70
  %9 = icmp ne i32 %8, 0
  br i1 %9, label %10, label %11

10:                                               ; preds = %1
  store i64 -1, ptr %2, align 8
  store i32 1, ptr %6, align 4
  br label %13

11:                                               ; preds = %1
  %12 = load i64, ptr %4, align 8, !tbaa !92
  store i64 %12, ptr %2, align 8
  store i32 1, ptr %6, align 4
  br label %13

13:                                               ; preds = %11, %10
  call void @llvm.lifetime.end.p0(i64 4, ptr %5) #3
  call void @llvm.lifetime.end.p0(i64 8, ptr %4) #3
  %14 = load i64, ptr %2, align 8
  ret i64 %14
}

; Function Attrs: mustprogress uwtable
define dso_local noundef i64 @_ZN5cmsys31SystemInformationImplementation22GetHostMemoryAvailableEPKc(ptr noundef nonnull align 8 dereferenceable(457) %0, ptr noundef %1) #4 align 2 {
  %3 = alloca ptr, align 8
  %4 = alloca ptr, align 8
  %5 = alloca i64, align 8
  %6 = alloca ptr, align 8
  %7 = alloca i64, align 8
  store ptr %0, ptr %3, align 8, !tbaa !12
  store ptr %1, ptr %4, align 8, !tbaa !69
  %8 = load ptr, ptr %3, align 8
  call void @llvm.lifetime.start.p0(i64 8, ptr %5) #3
  %9 = call noundef i64 @_ZN5cmsys31SystemInformationImplementation18GetHostMemoryTotalEv(ptr noundef nonnull align 8 dereferenceable(457) %8)
  store i64 %9, ptr %5, align 8, !tbaa !92
  %10 = load ptr, ptr %4, align 8, !tbaa !69
  %11 = icmp ne ptr %10, null
  br i1 %11, label %12, label %28

12:                                               ; preds = %2
  call void @llvm.lifetime.start.p0(i64 8, ptr %6) #3
  %13 = load ptr, ptr %4, align 8, !tbaa !69
  %14 = call ptr @getenv(ptr noundef %13) #3
  store ptr %14, ptr %6, align 8, !tbaa !69
  %15 = load ptr, ptr %6, align 8, !tbaa !69
  %16 = icmp ne ptr %15, null
  br i1 %16, label %17, label %27

17:                                               ; preds = %12
  call void @llvm.lifetime.start.p0(i64 8, ptr %7) #3
  %18 = load ptr, ptr %6, align 8, !tbaa !69
  %19 = call i64 @atoll(ptr noundef %18) #24
  store i64 %19, ptr %7, align 8, !tbaa !92
  %20 = load i64, ptr %7, align 8, !tbaa !92
  %21 = icmp sgt i64 %20, 0
  br i1 %21, label %22, label %26

22:                                               ; preds = %17
  %23 = load i64, ptr %7, align 8, !tbaa !92
  %24 = load i64, ptr %5, align 8, !tbaa !92
  %25 = call noundef i64 @_ZN5cmsys3minIxEET_S1_S1_(i64 noundef %23, i64 noundef %24)
  store i64 %25, ptr %5, align 8, !tbaa !92
  br label %26

26:                                               ; preds = %22, %17
  call void @llvm.lifetime.end.p0(i64 8, ptr %7) #3
  br label %27

27:                                               ; preds = %26, %12
  call void @llvm.lifetime.end.p0(i64 8, ptr %6) #3
  br label %28

28:                                               ; preds = %27, %2
  %29 = load i64, ptr %5, align 8, !tbaa !92
  call void @llvm.lifetime.end.p0(i64 8, ptr %5) #3
  ret i64 %29
}