; Function Attrs: mustprogress uwtable
define dso_local noundef i64 @_ZN5cmsys31SystemInformationImplementation22GetHostMemoryAvailableEPKc(ptr noundef nonnull readnone align 8 captures(none) dereferenceable(457) %0, ptr noundef readonly %1) local_unnamed_addr #3 align 2 {
  %3 = alloca [2 x ptr], align 16
  %4 = alloca [1 x i64], align 8
  call void @llvm.lifetime.start.p0(i64 16, ptr nonnull %3) #34
  store ptr @.str.177, ptr %3, align 16, !tbaa !133
  %5 = getelementptr inbounds nuw i8, ptr %3, i64 8
  store ptr null, ptr %5, align 8, !tbaa !133
  call void @llvm.lifetime.start.p0(i64 8, ptr nonnull %4) #34
  store i64 0, ptr %4, align 8
  %6 = call fastcc noundef i32 @_ZN5cmsys12_GLOBAL__N_117GetFieldsFromFileIxEEiPKcPS3_PT_(ptr noundef nonnull @.str.176, ptr noundef %3, ptr noundef %4)
  %.not.i.i = icmp eq i32 %6, 0
  %7 = load i64, ptr %4, align 8
  call void @llvm.lifetime.end.p0(i64 8, ptr nonnull %4) #34
  call void @llvm.lifetime.end.p0(i64 16, ptr nonnull %3) #34
  %.0.i = select i1 %.not.i.i, i64 %7, i64 -1
  %.not = icmp eq ptr %1, null
  br i1 %.not, label %15, label %8

8:                                                ; preds = %2
  %9 = call ptr @getenv(ptr noundef nonnull %1) #34
  %.not11 = icmp eq ptr %9, null
  br i1 %.not11, label %15, label %10

10:                                               ; preds = %8
  %11 = call i64 @strtoll(ptr noundef nonnull captures(none) %9, ptr noundef null, i32 noundef 10) #34
  %12 = icmp sgt i64 %11, 0
  br i1 %12, label %13, label %15

13:                                               ; preds = %10
  %14 = call noundef i64 @llvm.smin.i64(i64 %11, i64 %.0.i)
  br label %15

15:                                               ; preds = %8, %13, %10, %2
  %.0 = phi i64 [ %.0.i, %2 ], [ %.0.i, %8 ], [ %14, %13 ], [ %.0.i, %10 ]
  ret i64 %.0
}